; Function Attrs: mustprogress uwtable
define internal void @_ZNSt17_Function_handlerIFvvEZN12_GLOBAL__N_112ice40_dsp_pm13run_ice40_dspESt8functionIFvRS2_EEEUlvE_E9_M_invokeERKSt9_Any_data(ptr nocapture noundef nonnull readonly align 8 dereferenceable(16) %0) #4 align 2 {
  %.val = load ptr, ptr %0, align 8
  %2 = getelementptr inbounds i8, ptr %.val, i64 16
  %3 = load ptr, ptr %2, align 8
  %.not.i.i.i.i.i = icmp eq ptr %3, null
  br i1 %.not.i.i.i.i.i, label %4, label %_ZSt10__invoke_rIvRZN12_GLOBAL__N_112ice40_dsp_pm13run_ice40_dspESt8functionIFvRS1_EEEUlvE_JEENSt9enable_ifIXsr6__and_ISt7is_voidIT_ESt14__is_invocableIT0_JDpT1_EEEE5valueESA_E4typeEOSD_DpOSE_.exit

4:                                                ; preds = %1
  tail call void @_ZSt25__throw_bad_function_callv() #22
  unreachable

_ZSt10__invoke_rIvRZN12_GLOBAL__N_112ice40_dsp_pm13run_ice40_dspESt8functionIFvRS1_EEEUlvE_JEENSt9enable_ifIXsr6__and_ISt7is_voidIT_ESt14__is_invocableIT0_JDpT1_EEEE5valueESA_E4typeEOSD_DpOSE_.exit: ; preds = %1
  %5 = getelementptr inbounds i8, ptr %0, i64 8
  %.val1 = load ptr, ptr %5, align 8
  %6 = getelementptr inbounds i8, ptr %.val, i64 24
  %7 = load ptr, ptr %6, align 8
  tail call void %7(ptr noundef nonnull align 8 dereferenceable(16) %.val, ptr noundef nonnull align 8 dereferenceable(1532) %.val1)
  ret void
}